target datalayout = "e-m:e-p270:32:32-p271:32:32-p272:64:64-i64:64-i128:128-f80:128-n8:16:32:64-S128"
target triple = "x86_64-pc-linux-gnu"

%struct.EVP_AES_KEY = type { %union.anon, ptr, %union.anon.0 }
%union.anon = type { double, [240 x i8] }
%union.anon.0 = type { ptr }

; Function Attrs: nounwind uwtable
define internal i32 @aesni_ecb_cipher(ptr noundef %0, ptr noundef %1, ptr noundef %2, i64 noundef %3) #0 {
  %5 = alloca i32, align 4
  %6 = alloca ptr, align 8
  %7 = alloca ptr, align 8
  %8 = alloca ptr, align 8
  %9 = alloca i64, align 8
  %10 = alloca i64, align 8
  %11 = alloca i32, align 4
  store ptr %0, ptr %6, align 8, !tbaa !7
  store ptr %1, ptr %7, align 8, !tbaa !10
  store ptr %2, ptr %8, align 8, !tbaa !10
  store i64 %3, ptr %9, align 8, !tbaa !16
  call void @llvm.lifetime.start.p0(i64 8, ptr %10) #4
  %12 = load ptr, ptr %6, align 8, !tbaa !7
  %13 = call i32 @EVP_CIPHER_CTX_get_block_size(ptr noundef %12)
  %14 = sext i32 %13 to i64
  store i64 %14, ptr %10, align 8, !tbaa !16
  %15 = load i64, ptr %9, align 8, !tbaa !16
  %16 = load i64, ptr %10, align 8, !tbaa !16
  %17 = icmp ult i64 %15, %16
  br i1 %17, label %18, label %19

18:                                               ; preds = %4
  store i32 1, ptr %5, align 4
  store i32 1, ptr %11, align 4
  br label %28

19:                                               ; preds = %4
  %20 = load ptr, ptr %8, align 8, !tbaa !10
  %21 = load ptr, ptr %7, align 8, !tbaa !10
  %22 = load i64, ptr %9, align 8, !tbaa !16
  %23 = load ptr, ptr %6, align 8, !tbaa !7
  %24 = call ptr @EVP_CIPHER_CTX_get_cipher_data(ptr noundef %23)
  %25 = getelementptr inbounds nuw %struct.EVP_AES_KEY, ptr %24, i32 0, i32 0
  %26 = load ptr, ptr %6, align 8, !tbaa !7
  %27 = call i32 @EVP_CIPHER_CTX_is_encrypting(ptr noundef %26)
  call void @aesni_ecb_encrypt(ptr noundef %20, ptr noundef %21, i64 noundef %22, ptr noundef %25, i32 noundef %27)
  store i32 1, ptr %5, align 4
  store i32 1, ptr %11, align 4
  br label %28

28:                                               ; preds = %19, %18
  call void @llvm.lifetime.end.p0(i64 8, ptr %10) #4
  %29 = load i32, ptr %5, align 4
  ret i32 %29
}