; Function Attrs: nounwind uwtable
define internal noundef i32 @aesni_ecb_cipher(ptr noundef %0, ptr noundef %1, ptr noundef %2, i64 noundef %3) #2 {
  %5 = tail call i32 @EVP_CIPHER_CTX_get_block_size(ptr noundef %0) #8
  %6 = sext i32 %5 to i64
  %7 = icmp ult i64 %3, %6
  br i1 %7, label %11, label %8

8:                                                ; preds = %4
  %9 = tail call ptr @EVP_CIPHER_CTX_get_cipher_data(ptr noundef %0) #8
  %10 = tail call i32 @EVP_CIPHER_CTX_is_encrypting(ptr noundef %0) #8
  tail call void @aesni_ecb_encrypt(ptr noundef %2, ptr noundef %1, i64 noundef %3, ptr noundef %9, i32 noundef %10) #8
  br label %11

11:                                               ; preds = %4, %8
  ret i32 1
}